target datalayout = "e-m:e-p270:32:32-p271:32:32-p272:64:64-i64:64-i128:128-f80:128-n8:16:32:64-S128"
target triple = "x86_64-pc-linux-gnu"

%"struct.gmx::CorrelationBlockDataHistory" = type { double, double, double, double, double, double, double, double, double, i32, double }
%"class.gmx::CorrelationBlockData" = type { double, double, double, double, double, i32, %"class.std::vector.10", %"class.std::vector.15" }
%"class.std::vector.10" = type { %"struct.std::_Vector_base.11" }
%"struct.std::_Vector_base.11" = type { %"struct.std::_Vector_base<gmx::CorrelationBlockData::CoordData, std::allocator<gmx::CorrelationBlockData::CoordData>>::_Vector_impl" }
%"struct.std::_Vector_base<gmx::CorrelationBlockData::CoordData, std::allocator<gmx::CorrelationBlockData::CoordData>>::_Vector_impl" = type { %"struct.std::_Vector_base<gmx::CorrelationBlockData::CoordData, std::allocator<gmx::CorrelationBlockData::CoordData>>::_Vector_impl_data" }
%"struct.std::_Vector_base<gmx::CorrelationBlockData::CoordData, std::allocator<gmx::CorrelationBlockData::CoordData>>::_Vector_impl_data" = type { ptr, ptr, ptr }
%"class.std::vector.15" = type { %"struct.std::_Vector_base.16" }
%"struct.std::_Vector_base.16" = type { %"struct.std::_Vector_base<double, std::allocator<double>>::_Vector_impl" }
%"struct.std::_Vector_base<double, std::allocator<double>>::_Vector_impl" = type { %"struct.std::_Vector_base<double, std::allocator<double>>::_Vector_impl_data" }
%"struct.std::_Vector_base<double, std::allocator<double>>::_Vector_impl_data" = type { ptr, ptr, ptr }

; Function Attrs: mustprogress uwtable
define void @_ZN3gmx20CorrelationBlockData18restoreFromHistoryERKNS_27CorrelationBlockDataHistoryERKSt6vectorINS0_9CoordDataESaIS5_EERKS4_IdSaIdEE(ptr noundef nonnull align 8 dereferenceable(96) %0, ptr noundef nonnull align 8 dereferenceable(88) %1, ptr noundef nonnull align 8 dereferenceable(24) %2, ptr noundef nonnull align 8 dereferenceable(24) %3) #0 align 2 {
  %5 = alloca ptr, align 8
  %6 = alloca ptr, align 8
  %7 = alloca ptr, align 8
  %8 = alloca ptr, align 8
  store ptr %0, ptr %5, align 8
  store ptr %1, ptr %6, align 8
  store ptr %2, ptr %7, align 8
  store ptr %3, ptr %8, align 8
  %9 = load ptr, ptr %5, align 8
  %10 = load ptr, ptr %6, align 8
  %11 = getelementptr inbounds %"struct.gmx::CorrelationBlockDataHistory", ptr %10, i32 0, i32 0
  %12 = load double, ptr %11, align 8
  %13 = getelementptr inbounds %"class.gmx::CorrelationBlockData", ptr %9, i32 0, i32 0
  store double %12, ptr %13, align 8
  %14 = load ptr, ptr %6, align 8
  %15 = getelementptr inbounds %"struct.gmx::CorrelationBlockDataHistory", ptr %14, i32 0, i32 1
  %16 = load double, ptr %15, align 8
  %17 = getelementptr inbounds %"class.gmx::CorrelationBlockData", ptr %9, i32 0, i32 1
  store double %16, ptr %17, align 8
  %18 = load ptr, ptr %6, align 8
  %19 = getelementptr inbounds %"struct.gmx::CorrelationBlockDataHistory", ptr %18, i32 0, i32 4
  %20 = load double, ptr %19, align 8
  %21 = getelementptr inbounds %"class.gmx::CorrelationBlockData", ptr %9, i32 0, i32 2
  store double %20, ptr %21, align 8
  %22 = load ptr, ptr %6, align 8
  %23 = getelementptr inbounds %"struct.gmx::CorrelationBlockDataHistory", ptr %22, i32 0, i32 5
  %24 = load double, ptr %23, align 8
  %25 = getelementptr inbounds %"class.gmx::CorrelationBlockData", ptr %9, i32 0, i32 3
  store double %24, ptr %25, align 8
  %26 = load ptr, ptr %6, align 8
  %27 = getelementptr inbounds %"struct.gmx::CorrelationBlockDataHistory", ptr %26, i32 0, i32 9
  %28 = load i32, ptr %27, align 8
  %29 = getelementptr inbounds %"class.gmx::CorrelationBlockData", ptr %9, i32 0, i32 5
  store i32 %28, ptr %29, align 8
  %30 = load ptr, ptr %6, align 8
  %31 = getelementptr inbounds %"struct.gmx::CorrelationBlockDataHistory", ptr %30, i32 0, i32 8
  %32 = load double, ptr %31, align 8
  %33 = getelementptr inbounds %"class.gmx::CorrelationBlockData", ptr %9, i32 0, i32 4
  store double %32, ptr %33, align 8
  %34 = load ptr, ptr %7, align 8
  %35 = getelementptr inbounds %"class.gmx::CorrelationBlockData", ptr %9, i32 0, i32 6
  %36 = call noundef nonnull align 8 dereferenceable(24) ptr @_ZNSt6vectorIN3gmx20CorrelationBlockData9CoordDataESaIS2_EEaSERKS4_(ptr noundef nonnull align 8 dereferenceable(24) %35, ptr noundef nonnull align 8 dereferenceable(24) %34)
  %37 = load ptr, ptr %8, align 8
  %38 = getelementptr inbounds %"class.gmx::CorrelationBlockData", ptr %9, i32 0, i32 7
  %39 = call noundef nonnull align 8 dereferenceable(24) ptr @_ZNSt6vectorIdSaIdEEaSERKS1_(ptr noundef nonnull align 8 dereferenceable(24) %38, ptr noundef nonnull align 8 dereferenceable(24) %37)
  ret void
}