; Function Attrs: mustprogress uwtable
define void @_ZN3gmx20CorrelationBlockData18restoreFromHistoryERKNS_27CorrelationBlockDataHistoryERKSt6vectorINS0_9CoordDataESaIS5_EERKS4_IdSaIdEE(ptr noundef nonnull align 8 dereferenceable(96) %0, ptr nocapture noundef nonnull readonly align 8 dereferenceable(88) %1, ptr noundef nonnull align 8 dereferenceable(24) %2, ptr noundef nonnull align 8 dereferenceable(24) %3) local_unnamed_addr #0 align 2 {
  %5 = load double, ptr %1, align 8
  store double %5, ptr %0, align 8
  %6 = getelementptr inbounds i8, ptr %1, i64 8
  %7 = load double, ptr %6, align 8
  %8 = getelementptr inbounds i8, ptr %0, i64 8
  store double %7, ptr %8, align 8
  %9 = getelementptr inbounds i8, ptr %1, i64 32
  %10 = load double, ptr %9, align 8
  %11 = getelementptr inbounds i8, ptr %0, i64 16
  store double %10, ptr %11, align 8
  %12 = getelementptr inbounds i8, ptr %1, i64 40
  %13 = load double, ptr %12, align 8
  %14 = getelementptr inbounds i8, ptr %0, i64 24
  store double %13, ptr %14, align 8
  %15 = getelementptr inbounds i8, ptr %1, i64 72
  %16 = load i32, ptr %15, align 8
  %17 = getelementptr inbounds i8, ptr %0, i64 40
  store i32 %16, ptr %17, align 8
  %18 = getelementptr inbounds i8, ptr %1, i64 64
  %19 = load double, ptr %18, align 8
  %20 = getelementptr inbounds i8, ptr %0, i64 32
  store double %19, ptr %20, align 8
  %21 = getelementptr inbounds i8, ptr %0, i64 48
  %22 = tail call noundef nonnull align 8 dereferenceable(24) ptr @_ZNSt6vectorIN3gmx20CorrelationBlockData9CoordDataESaIS2_EEaSERKS4_(ptr noundef nonnull align 8 dereferenceable(24) %21, ptr noundef nonnull align 8 dereferenceable(24) %2)
  %23 = getelementptr inbounds i8, ptr %0, i64 72
  %24 = tail call noundef nonnull align 8 dereferenceable(24) ptr @_ZNSt6vectorIdSaIdEEaSERKS1_(ptr noundef nonnull align 8 dereferenceable(24) %23, ptr noundef nonnull align 8 dereferenceable(24) %3)
  ret void
}